target datalayout = "e-m:e-p270:32:32-p271:32:32-p272:64:64-i64:64-i128:128-f80:128-n8:16:32:64-S128"
target triple = "x86_64-pc-linux-gnu"

%struct.Gia_ManSwi_t_ = type { ptr, ptr, i32, ptr, ptr, ptr, ptr }

; Function Attrs: nounwind uwtable
define void @Gia_ManSwiDelete(ptr noundef %0) #0 {
  %2 = alloca ptr, align 8
  store ptr %0, ptr %2, align 8, !tbaa !19
  %3 = load ptr, ptr %2, align 8, !tbaa !19
  %4 = getelementptr inbounds nuw %struct.Gia_ManSwi_t_, ptr %3, i32 0, i32 0
  %5 = load ptr, ptr %4, align 8, !tbaa !21
  call void @Gia_ManStop(ptr noundef %5)
  %6 = load ptr, ptr %2, align 8, !tbaa !19
  %7 = getelementptr inbounds nuw %struct.Gia_ManSwi_t_, ptr %6, i32 0, i32 6
  %8 = load ptr, ptr %7, align 8, !tbaa !48
  %9 = icmp ne ptr %8, null
  br i1 %9, label %10, label %16

10:                                               ; preds = %1
  %11 = load ptr, ptr %2, align 8, !tbaa !19
  %12 = getelementptr inbounds nuw %struct.Gia_ManSwi_t_, ptr %11, i32 0, i32 6
  %13 = load ptr, ptr %12, align 8, !tbaa !48
  call void @free(ptr noundef %13) #11
  %14 = load ptr, ptr %2, align 8, !tbaa !19
  %15 = getelementptr inbounds nuw %struct.Gia_ManSwi_t_, ptr %14, i32 0, i32 6
  store ptr null, ptr %15, align 8, !tbaa !48
  br label %17

16:                                               ; preds = %1
  br label %17

17:                                               ; preds = %16, %10
  %18 = load ptr, ptr %2, align 8, !tbaa !19
  %19 = getelementptr inbounds nuw %struct.Gia_ManSwi_t_, ptr %18, i32 0, i32 3
  %20 = load ptr, ptr %19, align 8, !tbaa !45
  %21 = icmp ne ptr %20, null
  br i1 %21, label %22, label %28

22:                                               ; preds = %17
  %23 = load ptr, ptr %2, align 8, !tbaa !19
  %24 = getelementptr inbounds nuw %struct.Gia_ManSwi_t_, ptr %23, i32 0, i32 3
  %25 = load ptr, ptr %24, align 8, !tbaa !45
  call void @free(ptr noundef %25) #11
  %26 = load ptr, ptr %2, align 8, !tbaa !19
  %27 = getelementptr inbounds nuw %struct.Gia_ManSwi_t_, ptr %26, i32 0, i32 3
  store ptr null, ptr %27, align 8, !tbaa !45
  br label %29

28:                                               ; preds = %17
  br label %29

29:                                               ; preds = %28, %22
  %30 = load ptr, ptr %2, align 8, !tbaa !19
  %31 = getelementptr inbounds nuw %struct.Gia_ManSwi_t_, ptr %30, i32 0, i32 4
  %32 = load ptr, ptr %31, align 8, !tbaa !46
  %33 = icmp ne ptr %32, null
  br i1 %33, label %34, label %40

34:                                               ; preds = %29
  %35 = load ptr, ptr %2, align 8, !tbaa !19
  %36 = getelementptr inbounds nuw %struct.Gia_ManSwi_t_, ptr %35, i32 0, i32 4
  %37 = load ptr, ptr %36, align 8, !tbaa !46
  call void @free(ptr noundef %37) #11
  %38 = load ptr, ptr %2, align 8, !tbaa !19
  %39 = getelementptr inbounds nuw %struct.Gia_ManSwi_t_, ptr %38, i32 0, i32 4
  store ptr null, ptr %39, align 8, !tbaa !46
  br label %41

40:                                               ; preds = %29
  br label %41

41:                                               ; preds = %40, %34
  %42 = load ptr, ptr %2, align 8, !tbaa !19
  %43 = getelementptr inbounds nuw %struct.Gia_ManSwi_t_, ptr %42, i32 0, i32 5
  %44 = load ptr, ptr %43, align 8, !tbaa !47
  %45 = icmp ne ptr %44, null
  br i1 %45, label %46, label %52

46:                                               ; preds = %41
  %47 = load ptr, ptr %2, align 8, !tbaa !19
  %48 = getelementptr inbounds nuw %struct.Gia_ManSwi_t_, ptr %47, i32 0, i32 5
  %49 = load ptr, ptr %48, align 8, !tbaa !47
  call void @free(ptr noundef %49) #11
  %50 = load ptr, ptr %2, align 8, !tbaa !19
  %51 = getelementptr inbounds nuw %struct.Gia_ManSwi_t_, ptr %50, i32 0, i32 5
  store ptr null, ptr %51, align 8, !tbaa !47
  br label %53

52:                                               ; preds = %41
  br label %53

53:                                               ; preds = %52, %46
  %54 = load ptr, ptr %2, align 8, !tbaa !19
  %55 = icmp ne ptr %54, null
  br i1 %55, label %56, label %58

56:                                               ; preds = %53
  %57 = load ptr, ptr %2, align 8, !tbaa !19
  call void @free(ptr noundef %57) #11
  store ptr null, ptr %2, align 8, !tbaa !19
  br label %59

58:                                               ; preds = %53
  br label %59

59:                                               ; preds = %58, %56
  ret void
}