; Function Attrs: nounwind uwtable
define void @Gia_ManSwiDelete(ptr noundef captures(none) %0) local_unnamed_addr #2 {
  %2 = load ptr, ptr %0, align 8, !tbaa !14
  tail call void @Gia_ManStop(ptr noundef %2) #17
  %3 = getelementptr inbounds nuw i8, ptr %0, i64 48
  %4 = load ptr, ptr %3, align 8, !tbaa !48
  %.not = icmp eq ptr %4, null
  br i1 %.not, label %6, label %5

5:                                                ; preds = %1
  tail call void @free(ptr noundef nonnull %4) #17
  store ptr null, ptr %3, align 8, !tbaa !48
  br label %6

6:                                                ; preds = %1, %5
  %7 = getelementptr inbounds nuw i8, ptr %0, i64 24
  %8 = load ptr, ptr %7, align 8, !tbaa !41
  %.not18 = icmp eq ptr %8, null
  br i1 %.not18, label %10, label %9

9:                                                ; preds = %6
  tail call void @free(ptr noundef nonnull %8) #17
  store ptr null, ptr %7, align 8, !tbaa !41
  br label %10

10:                                               ; preds = %6, %9
  %11 = getelementptr inbounds nuw i8, ptr %0, i64 32
  %12 = load ptr, ptr %11, align 8, !tbaa !44
  %.not19 = icmp eq ptr %12, null
  br i1 %.not19, label %14, label %13

13:                                               ; preds = %10
  tail call void @free(ptr noundef nonnull %12) #17
  store ptr null, ptr %11, align 8, !tbaa !44
  br label %14

14:                                               ; preds = %10, %13
  %15 = getelementptr inbounds nuw i8, ptr %0, i64 40
  %16 = load ptr, ptr %15, align 8, !tbaa !46
  %.not20 = icmp eq ptr %16, null
  br i1 %.not20, label %18, label %17

17:                                               ; preds = %14
  tail call void @free(ptr noundef nonnull %16) #17
  br label %18

18:                                               ; preds = %17, %14
  tail call void @free(ptr noundef nonnull %0) #17
  ret void
}